; Function Attrs: mustprogress uwtable
define noundef i32 @_ZN3zmq12raw_engine_t23push_raw_msg_to_sessionEPNS_5msg_tE(ptr noundef nonnull align 8 dereferenceable(1696) %this, ptr noundef %msg_) #0 align 2 {
entry:
  %_metadata = getelementptr inbounds i8, ptr %this, i64 1448
  %0 = load ptr, ptr %_metadata, align 8
  %tobool.not = icmp eq ptr %0, null
  br i1 %tobool.not, label %if.end, label %land.lhs.true

land.lhs.true:                                    ; preds = %entry
  %call = tail call noundef ptr @_ZNK3zmq5msg_t8metadataEv(ptr noundef nonnull align 8 dereferenceable(64) %msg_)
  %cmp.not = icmp eq ptr %0, %call
  br i1 %cmp.not, label %if.end, label %if.then

if.then:                                          ; preds = %land.lhs.true
  %1 = load ptr, ptr %_metadata, align 8
  tail call void @_ZN3zmq5msg_t12set_metadataEPNS_10metadata_tE(ptr noundef nonnull align 8 dereferenceable(64) %msg_, ptr noundef %1)
  br label %if.end

if.end:                                           ; preds = %if.then, %land.lhs.true, %entry
  %call4 = tail call noundef i32 @_ZN3zmq20stream_engine_base_t19push_msg_to_sessionEPNS_5msg_tE(ptr noundef nonnull align 8 dereferenceable(1689) %this, ptr noundef %msg_)
  ret i32 %call4
}